target datalayout = "e-m:e-p270:32:32-p271:32:32-p272:64:64-i64:64-i128:128-f80:128-n8:16:32:64-S128"
target triple = "x86_64-pc-linux-gnu"

%struct.If_DsdMan_t_ = type { ptr, i32, i32, i32, i32, ptr, ptr, %struct.Vec_Ptr_t_, %struct.Vec_Int_t_, %struct.Vec_Int_t_, ptr, ptr, ptr, [16 x ptr], [16 x ptr], [16 x ptr], [16 x ptr], i32, i32, ptr, ptr, ptr, ptr, ptr, i32, i32, i32, i32, i64, i64, i64, i64, i64 }
%struct.Vec_Ptr_t_ = type { i32, i32, ptr }
%struct.Vec_Int_t_ = type { i32, i32, ptr }
%struct.If_DsdObj_t_ = type { i32, i32, [0 x i32] }

; Function Attrs: inlinehint nounwind uwtable
define internal ptr @Vec_PtrEntry(ptr noundef %0, i32 noundef %1) #1 {
  %3 = alloca ptr, align 8
  %4 = alloca i32, align 4
  store ptr %0, ptr %3, align 8, !tbaa !22
  store i32 %1, ptr %4, align 4, !tbaa !27
  %5 = load ptr, ptr %3, align 8, !tbaa !22
  %6 = getelementptr inbounds nuw %struct.Vec_Ptr_t_, ptr %5, i32 0, i32 2
  %7 = load ptr, ptr %6, align 8, !tbaa !46
  %8 = load i32, ptr %4, align 4, !tbaa !27
  %9 = sext i32 %8 to i64
  %10 = getelementptr inbounds ptr, ptr %7, i64 %9
  %11 = load ptr, ptr %10, align 8, !tbaa !44
  ret ptr %11
}

; Function Attrs: inlinehint nounwind uwtable
define internal i32 @If_DsdObjFaninLit(ptr noundef %0, i32 noundef %1) #1 {
  %3 = alloca ptr, align 8
  %4 = alloca i32, align 4
  store ptr %0, ptr %3, align 8, !tbaa !40
  store i32 %1, ptr %4, align 4, !tbaa !27
  %5 = load ptr, ptr %3, align 8, !tbaa !40
  %6 = getelementptr inbounds nuw %struct.If_DsdObj_t_, ptr %5, i32 0, i32 2
  %7 = load i32, ptr %4, align 4, !tbaa !27
  %8 = sext i32 %7 to i64
  %9 = getelementptr inbounds [0 x i32], ptr %6, i64 0, i64 %8
  %10 = load i32, ptr %9, align 4, !tbaa !27
  ret i32 %10
}

; Function Attrs: inlinehint nounwind uwtable
define internal i32 @If_DsdObjFaninNum(ptr noundef %0) #1 {
  %2 = alloca ptr, align 8
  store ptr %0, ptr %2, align 8, !tbaa !40
  %3 = load ptr, ptr %2, align 8, !tbaa !40
  %4 = getelementptr inbounds nuw %struct.If_DsdObj_t_, ptr %3, i32 0, i32 1
  %5 = load i32, ptr %4, align 4
  %6 = lshr i32 %5, 27
  ret i32 %6
}

; Function Attrs: inlinehint nounwind uwtable
define internal i32 @If_DsdObjType(ptr noundef %0) #1 {
  %2 = alloca ptr, align 8
  store ptr %0, ptr %2, align 8, !tbaa !40
  %3 = load ptr, ptr %2, align 8, !tbaa !40
  %4 = getelementptr inbounds nuw %struct.If_DsdObj_t_, ptr %3, i32 0, i32 1
  %5 = load i32, ptr %4, align 4
  %6 = and i32 %5, 7
  ret i32 %6
}

; Function Attrs: inlinehint nounwind uwtable
define internal ptr @If_DsdVecObj(ptr noundef %0, i32 noundef %1) #1 {
  %3 = alloca ptr, align 8
  %4 = alloca i32, align 4
  store ptr %0, ptr %3, align 8, !tbaa !22
  store i32 %1, ptr %4, align 4, !tbaa !27
  %5 = load ptr, ptr %3, align 8, !tbaa !22
  %6 = load i32, ptr %4, align 4, !tbaa !27
  %7 = call ptr @Vec_PtrEntry(ptr noundef %5, i32 noundef %6)
  ret ptr %7
}

; Function Attrs: inlinehint nounwind uwtable
define internal i32 @Abc_Lit2Var(i32 noundef %0) #1 {
  %2 = alloca i32, align 4
  store i32 %0, ptr %2, align 4, !tbaa !27
  %3 = load i32, ptr %2, align 4, !tbaa !27
  %4 = ashr i32 %3, 1
  ret i32 %4
}

; Function Attrs: nounwind uwtable
define i32 @If_DsdManCheckInv_rec(ptr noundef %0, i32 noundef %1) #0 {
  %3 = alloca i32, align 4
  %4 = alloca ptr, align 8
  %5 = alloca i32, align 4
  %6 = alloca ptr, align 8
  %7 = alloca i32, align 4
  %8 = alloca i32, align 4
  %9 = alloca i32, align 4
  store ptr %0, ptr %4, align 8, !tbaa !3
  store i32 %1, ptr %5, align 4, !tbaa !27
  call void @llvm.lifetime.start.p0(i64 8, ptr %6) #15
  call void @llvm.lifetime.start.p0(i64 4, ptr %7) #15
  call void @llvm.lifetime.start.p0(i64 4, ptr %8) #15
  %10 = load ptr, ptr %4, align 8, !tbaa !3
  %11 = getelementptr inbounds nuw %struct.If_DsdMan_t_, ptr %10, i32 0, i32 7
  %12 = load i32, ptr %5, align 4, !tbaa !27
  %13 = call i32 @Abc_Lit2Var(i32 noundef %12)
  %14 = call ptr @If_DsdVecObj(ptr noundef %11, i32 noundef %13)
  store ptr %14, ptr %6, align 8, !tbaa !40
  %15 = load ptr, ptr %6, align 8, !tbaa !40
  %16 = call i32 @If_DsdObjType(ptr noundef %15)
  %17 = icmp eq i32 %16, 2
  br i1 %17, label %18, label %19

18:                                               ; preds = %2
  store i32 1, ptr %3, align 4
  store i32 1, ptr %9, align 4
  br label %80

19:                                               ; preds = %2
  %20 = load ptr, ptr %6, align 8, !tbaa !40
  %21 = call i32 @If_DsdObjType(ptr noundef %20)
  %22 = icmp eq i32 %21, 3
  br i1 %22, label %27, label %23

23:                                               ; preds = %19
  %24 = load ptr, ptr %6, align 8, !tbaa !40
  %25 = call i32 @If_DsdObjType(ptr noundef %24)
  %26 = icmp eq i32 %25, 6
  br i1 %26, label %27, label %28

27:                                               ; preds = %23, %19
  store i32 0, ptr %3, align 4
  store i32 1, ptr %9, align 4
  br label %80

28:                                               ; preds = %23
  %29 = load ptr, ptr %6, align 8, !tbaa !40
  %30 = call i32 @If_DsdObjType(ptr noundef %29)
  %31 = icmp eq i32 %30, 4
  br i1 %31, label %32, label %56

32:                                               ; preds = %28
  store i32 0, ptr %7, align 4, !tbaa !27
  br label %33

33:                                               ; preds = %52, %32
  %34 = load i32, ptr %7, align 4, !tbaa !27
  %35 = load ptr, ptr %6, align 8, !tbaa !40
  %36 = call i32 @If_DsdObjFaninNum(ptr noundef %35)
  %37 = icmp slt i32 %34, %36
  br i1 %37, label %38, label %43

38:                                               ; preds = %33
  %39 = load ptr, ptr %6, align 8, !tbaa !40
  %40 = load i32, ptr %7, align 4, !tbaa !27
  %41 = call i32 @If_DsdObjFaninLit(ptr noundef %39, i32 noundef %40)
  store i32 %41, ptr %8, align 4, !tbaa !27
  %42 = icmp ne i32 %41, 0
  br label %43

43:                                               ; preds = %38, %33
  %44 = phi i1 [ false, %33 ], [ %42, %38 ]
  br i1 %44, label %45, label %55

45:                                               ; preds = %43
  %46 = load ptr, ptr %4, align 8, !tbaa !3
  %47 = load i32, ptr %8, align 4, !tbaa !27
  %48 = call i32 @If_DsdManCheckInv_rec(ptr noundef %46, i32 noundef %47)
  %49 = icmp ne i32 %48, 0
  br i1 %49, label %50, label %51

50:                                               ; preds = %45
  store i32 1, ptr %3, align 4
  store i32 1, ptr %9, align 4
  br label %80

51:                                               ; preds = %45
  br label %52

52:                                               ; preds = %51
  %53 = load i32, ptr %7, align 4, !tbaa !27
  %54 = add nsw i32 %53, 1
  store i32 %54, ptr %7, align 4, !tbaa !27
  br label %33, !llvm.loop !205

55:                                               ; preds = %43
  store i32 0, ptr %3, align 4
  store i32 1, ptr %9, align 4
  br label %80

56:                                               ; preds = %28
  %57 = load ptr, ptr %6, align 8, !tbaa !40
  %58 = call i32 @If_DsdObjType(ptr noundef %57)
  %59 = icmp eq i32 %58, 5
  br i1 %59, label %60, label %79

60:                                               ; preds = %56
  %61 = load ptr, ptr %4, align 8, !tbaa !3
  %62 = load ptr, ptr %6, align 8, !tbaa !40
  %63 = getelementptr inbounds nuw %struct.If_DsdObj_t_, ptr %62, i32 0, i32 2
  %64 = getelementptr inbounds [0 x i32], ptr %63, i64 0, i64 1
  %65 = load i32, ptr %64, align 4, !tbaa !27
  %66 = call i32 @If_DsdManCheckInv_rec(ptr noundef %61, i32 noundef %65)
  %67 = icmp ne i32 %66, 0
  br i1 %67, label %68, label %76

68:                                               ; preds = %60
  %69 = load ptr, ptr %4, align 8, !tbaa !3
  %70 = load ptr, ptr %6, align 8, !tbaa !40
  %71 = getelementptr inbounds nuw %struct.If_DsdObj_t_, ptr %70, i32 0, i32 2
  %72 = getelementptr inbounds [0 x i32], ptr %71, i64 0, i64 2
  %73 = load i32, ptr %72, align 4, !tbaa !27
  %74 = call i32 @If_DsdManCheckInv_rec(ptr noundef %69, i32 noundef %73)
  %75 = icmp ne i32 %74, 0
  br label %76

76:                                               ; preds = %68, %60
  %77 = phi i1 [ false, %60 ], [ %75, %68 ]
  %78 = zext i1 %77 to i32
  store i32 %78, ptr %3, align 4
  store i32 1, ptr %9, align 4
  br label %80

79:                                               ; preds = %56
  store i32 0, ptr %3, align 4
  store i32 1, ptr %9, align 4
  br label %80

80:                                               ; preds = %79, %76, %55, %50, %27, %18
  call void @llvm.lifetime.end.p0(i64 4, ptr %8) #15
  call void @llvm.lifetime.end.p0(i64 4, ptr %7) #15
  call void @llvm.lifetime.end.p0(i64 8, ptr %6) #15
  %81 = load i32, ptr %3, align 4
  ret i32 %81
}