; Function Attrs: nofree nosync nounwind memory(read, inaccessiblemem: none) uwtable
define range(i32 0, 2) i32 @If_DsdManCheckInv_rec(ptr noundef readonly %0, i32 noundef %1) local_unnamed_addr #12 {
  %3 = getelementptr i8, ptr %0, i64 48
  %.val = load ptr, ptr %3, align 8, !tbaa !23
  br label %tailrecurse

tailrecurse:                                      ; preds = %21, %2
  %.tr30 = phi i32 [ %1, %2 ], [ %23, %21 ]
  %4 = ashr i32 %.tr30, 1
  %5 = sext i32 %4 to i64
  %6 = getelementptr inbounds ptr, ptr %.val, i64 %5
  %7 = load ptr, ptr %6, align 8, !tbaa !24
  %8 = getelementptr i8, ptr %7, i64 4
  %.val26 = load i32, ptr %8, align 4
  %9 = and i32 %.val26, 7
  switch i32 %9, label %.critedge [
    i32 2, label %.critedge.loopexit59
    i32 5, label %17
    i32 4, label %.preheader
  ]

.preheader:                                       ; preds = %tailrecurse
  %10 = getelementptr inbounds nuw i8, ptr %7, i64 8
  %.not42 = icmp ult i32 %.val26, 134217728
  br i1 %.not42, label %.critedge, label %.lr.ph.preheader

.lr.ph.preheader:                                 ; preds = %.preheader
  %11 = lshr i32 %.val26, 27
  %wide.trip.count = zext nneg i32 %11 to i64
  br label %.lr.ph

12:                                               ; preds = %15
  %indvars.iv.next = add nuw nsw i64 %indvars.iv, 1
  %exitcond.not = icmp eq i64 %indvars.iv.next, %wide.trip.count
  br i1 %exitcond.not, label %.critedge, label %.lr.ph, !llvm.loop !201

.lr.ph:                                           ; preds = %.lr.ph.preheader, %12
  %indvars.iv = phi i64 [ 0, %.lr.ph.preheader ], [ %indvars.iv.next, %12 ]
  %13 = getelementptr inbounds nuw [0 x i32], ptr %10, i64 0, i64 %indvars.iv
  %14 = load i32, ptr %13, align 4, !tbaa !40
  %.not20 = icmp eq i32 %14, 0
  br i1 %.not20, label %.critedge, label %15

15:                                               ; preds = %.lr.ph
  %16 = tail call i32 @If_DsdManCheckInv_rec(ptr noundef %0, i32 noundef %14)
  %.not21 = icmp eq i32 %16, 0
  br i1 %.not21, label %12, label %.critedge

17:                                               ; preds = %tailrecurse
  %18 = getelementptr inbounds nuw i8, ptr %7, i64 12
  %19 = load i32, ptr %18, align 4, !tbaa !40
  %20 = tail call i32 @If_DsdManCheckInv_rec(ptr noundef nonnull %0, i32 noundef %19)
  %.not = icmp eq i32 %20, 0
  br i1 %.not, label %.critedge, label %21

21:                                               ; preds = %17
  %22 = getelementptr inbounds nuw i8, ptr %7, i64 16
  %23 = load i32, ptr %22, align 4, !tbaa !40
  br label %tailrecurse

.critedge.loopexit59:                             ; preds = %tailrecurse
  br label %.critedge

.critedge:                                        ; preds = %15, %12, %.lr.ph, %17, %tailrecurse, %.critedge.loopexit59, %.preheader
  %.0 = phi i32 [ 0, %.preheader ], [ 1, %.critedge.loopexit59 ], [ 0, %tailrecurse ], [ 0, %17 ], [ 1, %15 ], [ 0, %12 ], [ 0, %.lr.ph ]
  ret i32 %.0
}